; Function Attrs: mustprogress nofree nounwind memory(readwrite, inaccessiblemem: write) uwtable
define internal noundef float @_ZN5faiss12_GLOBAL__N_121ExtraDistanceComputerINS_14VectorDistanceILNS_10MetricTypeE4EEEE13symmetric_disEll(ptr nocapture noundef nonnull readonly align 8 dereferenceable(64) %0, i64 noundef %1, i64 noundef %2) unnamed_addr #18 align 2 {
  %4 = getelementptr inbounds i8, ptr %0, i64 24
  %5 = getelementptr inbounds i8, ptr %0, i64 56
  %6 = load ptr, ptr %5, align 8
  %7 = load i64, ptr %4, align 8
  %8 = mul i64 %7, %2
  %9 = getelementptr inbounds float, ptr %6, i64 %8
  %10 = mul i64 %7, %1
  %11 = getelementptr inbounds float, ptr %6, i64 %10
  %.not.i = icmp eq i64 %7, 0
  br i1 %.not.i, label %_ZNK5faiss14VectorDistanceILNS_10MetricTypeE4EEclEPKfS4_.exit, label %.lr.ph.i

.lr.ph.i:                                         ; preds = %3
  %12 = getelementptr inbounds i8, ptr %0, i64 32
  br label %13

13:                                               ; preds = %13, %.lr.ph.i
  %.011.i = phi float [ 0.000000e+00, %.lr.ph.i ], [ %22, %13 ]
  %.0910.i = phi i64 [ 0, %.lr.ph.i ], [ %23, %13 ]
  %14 = getelementptr inbounds float, ptr %9, i64 %.0910.i
  %15 = load float, ptr %14, align 4
  %16 = getelementptr inbounds float, ptr %11, i64 %.0910.i
  %17 = load float, ptr %16, align 4
  %18 = fsub float %15, %17
  %19 = tail call float @llvm.fabs.f32(float %18)
  %20 = load float, ptr %12, align 8
  %21 = tail call float @powf(float noundef %19, float noundef %20) #5
  %22 = fadd float %.011.i, %21
  %23 = add nuw i64 %.0910.i, 1
  %24 = load i64, ptr %4, align 8
  %25 = icmp ult i64 %23, %24
  br i1 %25, label %13, label %_ZNK5faiss14VectorDistanceILNS_10MetricTypeE4EEclEPKfS4_.exit, !llvm.loop !31

_ZNK5faiss14VectorDistanceILNS_10MetricTypeE4EEclEPKfS4_.exit: ; preds = %13, %3
  %.0.lcssa.i = phi float [ 0.000000e+00, %3 ], [ %22, %13 ]
  ret float %.0.lcssa.i
}